target datalayout = "e-m:e-p270:32:32-p271:32:32-p272:64:64-i64:64-i128:128-f80:128-n8:16:32:64-S128"
target triple = "x86_64-pc-linux-gnu"

%struct.CPUState = type { %struct.DeviceState, ptr, i32, ptr, i32, i8, i8, ptr, i8, i8, i8, i8, i8, i8, i8, i8, i32, i32, i32, i32, i64, i64, i64, [1 x %struct.__jmp_buf_tag], %struct.QemuMutex, %struct.anon, ptr, i32, i32, ptr, ptr, ptr, ptr, i32, i32, %union.anon, %union.anon.0, %union.anon.1, ptr, ptr, i64, i32, ptr, ptr, ptr, i32, i64, i32, i8, %struct.QemuLockCnt, ptr, i32, i32, i32, i32, i32, ptr, i8, i64, i8, i8, ptr, [0 x i8], %struct.CPUNegativeOffsetState }
%struct.DeviceState = type { %struct.Object, ptr, ptr, i8, i8, i64, i32, i8, ptr, %struct.NamedGPIOListHead, %struct.NamedClockListHead, %struct.BusStateHead, i32, i32, i32, %struct.ResettableState, ptr, %struct.MemReentrancyGuard }
%struct.Object = type { ptr, ptr, ptr, i32, ptr }
%struct.NamedGPIOListHead = type { ptr }
%struct.NamedClockListHead = type { ptr }
%struct.BusStateHead = type { ptr }
%struct.ResettableState = type { i32, i8, i8 }
%struct.MemReentrancyGuard = type { i8 }
%struct.__jmp_buf_tag = type { [8 x i64], i32, %struct.__sigset_t }
%struct.__sigset_t = type { [16 x i64] }
%struct.QemuMutex = type { %union.pthread_mutex_t, i8 }
%union.pthread_mutex_t = type { %struct.__pthread_mutex_s }
%struct.__pthread_mutex_s = type { i32, i32, i32, i32, i32, i16, i16, %struct.__pthread_internal_list }
%struct.__pthread_internal_list = type { ptr, ptr }
%struct.anon = type { ptr, ptr }
%union.anon = type { %struct.QTailQLink }
%struct.QTailQLink = type { ptr, ptr }
%union.anon.0 = type { %struct.QTailQLink }
%union.anon.1 = type { %struct.QTailQLink }
%struct.QemuLockCnt = type { i32 }
%struct.CPUNegativeOffsetState = type { %struct.CPUTLB, ptr, i64, i64, %union.IcountDecr, i8 }
%struct.CPUTLB = type { %struct.CPUTLBCommon, [16 x %struct.CPUTLBDesc], [16 x %struct.CPUTLBDescFast] }
%struct.CPUTLBCommon = type { %struct.QemuSpin, i16, i64, i64, i64 }
%struct.QemuSpin = type { i32 }
%struct.CPUTLBDesc = type { i64, i64, i64, i64, i64, i64, [8 x %union.CPUTLBEntry], [8 x %struct.CPUTLBEntryFull], ptr }
%union.CPUTLBEntry = type { %struct.anon.2 }
%struct.anon.2 = type { i64, i64, i64, i64 }
%struct.CPUTLBEntryFull = type { i64, i64, %struct.MemTxAttrs, i8, i8, i8, [3 x i8], %union.anon.3 }
%struct.MemTxAttrs = type { i32, i8, i8, i16 }
%union.anon.3 = type { %struct.anon.4 }
%struct.anon.4 = type { i8, i8, i8 }
%struct.CPUTLBDescFast = type { i64, ptr }
%union.IcountDecr = type { i32 }
%struct.VMStateDescription = type { ptr, i8, i8, i32, i32, i32, ptr, ptr, ptr, ptr, ptr, ptr, ptr, ptr }

@.str = private unnamed_addr constant [79 x i8] c"qdev_get_vmsd(DEVICE(cpu)) == NULL || qdev_get_vmsd(DEVICE(cpu))->unmigratable\00", align 1
@.str.1 = private unnamed_addr constant [21 x i8] c"../qemu/cpu-target.c\00", align 1
@__PRETTY_FUNCTION__.cpu_exec_realizefn = private unnamed_addr constant [47 x i8] c"_Bool cpu_exec_realizefn(CPUState *, Error **)\00", align 1
@.str.11 = private unnamed_addr constant [4 x i8] c"cpu\00", align 1
@.str.12 = private unnamed_addr constant [100 x i8] c"/home/dtcxzyw/WorkSpace/Projects/compilers/llvm-opt-benchmark/bench/qemu/qemu/include/hw/core/cpu.h\00", align 1
@__func__.CPU_GET_CLASS = private unnamed_addr constant [14 x i8] c"CPU_GET_CLASS\00", align 1
@.str.13 = private unnamed_addr constant [7 x i8] c"device\00", align 1
@.str.14 = private unnamed_addr constant [101 x i8] c"/home/dtcxzyw/WorkSpace/Projects/compilers/llvm-opt-benchmark/bench/qemu/qemu/include/hw/qdev-core.h\00", align 1
@__func__.DEVICE = private unnamed_addr constant [7 x i8] c"DEVICE\00", align 1

; Function Attrs: inlinehint nounwind sspstrong uwtable
define internal ptr @DEVICE(ptr noundef %0) #1 {
  %2 = alloca ptr, align 8
  store ptr %0, ptr %2, align 8
  %3 = load ptr, ptr %2, align 8
  %4 = call ptr @object_dynamic_cast_assert(ptr noundef %3, ptr noundef @.str.13, ptr noundef @.str.14, i32 noundef 77, ptr noundef @__func__.DEVICE)
  ret ptr %4
}

; Function Attrs: inlinehint nounwind sspstrong uwtable
define internal ptr @CPU_GET_CLASS(ptr noundef %0) #1 {
  %2 = alloca ptr, align 8
  store ptr %0, ptr %2, align 8
  %3 = load ptr, ptr %2, align 8
  %4 = call ptr @object_get_class(ptr noundef %3)
  %5 = call ptr @object_class_dynamic_cast_assert(ptr noundef %4, ptr noundef @.str.11, ptr noundef @.str.12, i32 noundef 67, ptr noundef @__func__.CPU_GET_CLASS)
  ret ptr %5
}

; Function Attrs: nounwind sspstrong uwtable
define dso_local zeroext i1 @cpu_exec_realizefn(ptr noundef %0, ptr noundef %1) #0 {
  %3 = alloca i1, align 1
  %4 = alloca ptr, align 8
  %5 = alloca ptr, align 8
  store ptr %0, ptr %4, align 8
  store ptr %1, ptr %5, align 8
  %6 = load ptr, ptr %4, align 8
  %7 = call ptr @CPU_GET_CLASS(ptr noundef %6)
  %8 = load ptr, ptr %4, align 8
  %9 = getelementptr inbounds nuw %struct.CPUState, ptr %8, i32 0, i32 1
  store ptr %7, ptr %9, align 8
  %10 = load ptr, ptr %4, align 8
  %11 = load ptr, ptr %5, align 8
  %12 = call zeroext i1 @accel_cpu_common_realize(ptr noundef %10, ptr noundef %11)
  br i1 %12, label %14, label %13

13:                                               ; preds = %2
  store i1 false, ptr %3, align 1
  br label %30

14:                                               ; preds = %2
  %15 = load ptr, ptr %4, align 8
  call void @cpu_list_add(ptr noundef %15)
  %16 = load ptr, ptr %4, align 8
  %17 = call ptr @DEVICE(ptr noundef %16)
  %18 = call ptr @qdev_get_vmsd(ptr noundef %17)
  %19 = icmp eq ptr %18, null
  br i1 %19, label %27, label %20

20:                                               ; preds = %14
  %21 = load ptr, ptr %4, align 8
  %22 = call ptr @DEVICE(ptr noundef %21)
  %23 = call ptr @qdev_get_vmsd(ptr noundef %22)
  %24 = getelementptr inbounds nuw %struct.VMStateDescription, ptr %23, i32 0, i32 1
  %25 = load i8, ptr %24, align 8, !range !4, !noundef !5
  %26 = trunc i8 %25 to i1
  br i1 %26, label %27, label %28

27:                                               ; preds = %20, %14
  br label %29

28:                                               ; preds = %20
  call void @__assert_fail(ptr noundef @.str, ptr noundef @.str.1, i32 noundef 149, ptr noundef @__PRETTY_FUNCTION__.cpu_exec_realizefn) #15
  unreachable

29:                                               ; preds = %27
  store i1 true, ptr %3, align 1
  br label %30

30:                                               ; preds = %29, %13
  %31 = load i1, ptr %3, align 1
  ret i1 %31
}