; Function Attrs: nounwind sspstrong uwtable
define dso_local noundef zeroext i1 @cpu_exec_realizefn(ptr noundef %0, ptr noundef %1) local_unnamed_addr #0 {
  %3 = tail call ptr @object_get_class(ptr noundef %0) #17
  %4 = tail call ptr @object_class_dynamic_cast_assert(ptr noundef %3, ptr noundef nonnull @.str.11, ptr noundef nonnull @.str.12, i32 noundef 67, ptr noundef nonnull @__func__.CPU_GET_CLASS) #17
  %5 = getelementptr inbounds nuw i8, ptr %0, i64 152
  store ptr %4, ptr %5, align 8
  %6 = tail call zeroext i1 @accel_cpu_common_realize(ptr noundef %0, ptr noundef %1) #17
  br i1 %6, label %7, label %18

7:                                                ; preds = %2
  tail call void @cpu_list_add(ptr noundef nonnull %0) #17
  %8 = tail call ptr @object_dynamic_cast_assert(ptr noundef nonnull %0, ptr noundef nonnull @.str.13, ptr noundef nonnull @.str.14, i32 noundef 77, ptr noundef nonnull @__func__.DEVICE) #17
  %9 = tail call ptr @qdev_get_vmsd(ptr noundef %8) #17
  %10 = icmp eq ptr %9, null
  br i1 %10, label %18, label %11

11:                                               ; preds = %7
  %12 = tail call ptr @object_dynamic_cast_assert(ptr noundef nonnull %0, ptr noundef nonnull @.str.13, ptr noundef nonnull @.str.14, i32 noundef 77, ptr noundef nonnull @__func__.DEVICE) #17
  %13 = tail call ptr @qdev_get_vmsd(ptr noundef %12) #17
  %14 = getelementptr inbounds nuw i8, ptr %13, i64 8
  %15 = load i8, ptr %14, align 8, !range !4, !noundef !5
  %16 = trunc nuw i8 %15 to i1
  br i1 %16, label %18, label %17

17:                                               ; preds = %11
  tail call void @__assert_fail(ptr noundef nonnull @.str, ptr noundef nonnull @.str.1, i32 noundef 149, ptr noundef nonnull @__PRETTY_FUNCTION__.cpu_exec_realizefn) #18
  unreachable

18:                                               ; preds = %11, %7, %2
  ret i1 %6
}